target datalayout = "e-m:e-p270:32:32-p271:32:32-p272:64:64-i64:64-i128:128-f80:128-n8:16:32:64-S128"
target triple = "x86_64-pc-linux-gnu"

%"class.cv::utils::trace::details::Region" = type <{ ptr, i32, [4 x i8] }>

@_ZN11opencv_test30required_opencv_test_namespaceE = external global i8, align 1
@_ZTIN6cvtest7details21SkipTestExceptionBaseE = linkonce_odr hidden constant { ptr, ptr, ptr } { ptr getelementptr inbounds (ptr, ptr @_ZTVN10__cxxabiv120__si_class_type_infoE, i64 2), ptr @_ZTSN6cvtest7details21SkipTestExceptionBaseE, ptr @_ZTIN2cv9ExceptionE }, comdat, align 8
@.str.23 = private unnamed_addr constant [17 x i8] c"[     SKIP ] %s\0A\00", align 1

; Function Attrs: mustprogress uwtable
define hidden void @_ZN11opencv_test54MatInfo_Size_Scale_NN_ResizeNNExact_ResizeNNExact_Test8TestBodyEv(ptr noundef nonnull align 8 dereferenceable(257) %0) unnamed_addr #6 align 2 personality ptr @__gxx_personality_v0 {
  %2 = alloca ptr, align 8
  %3 = alloca %"class.cv::utils::trace::details::Region", align 8
  %4 = alloca ptr, align 8
  %5 = alloca i32, align 4
  %6 = alloca ptr, align 8
  store ptr %0, ptr %2, align 8, !tbaa !234
  %7 = load ptr, ptr %2, align 8
  store i8 1, ptr @_ZN11opencv_test30required_opencv_test_namespaceE, align 1, !tbaa !16
  call void @llvm.lifetime.start.p0(i64 16, ptr %3) #3
  call void @_ZN2cv5utils5trace7details6RegionC1ERKNS3_21LocationStaticStorageE(ptr noundef nonnull align 8 dereferenceable(12) %3, ptr noundef nonnull align 8 dereferenceable(32) @_ZZN11opencv_test54MatInfo_Size_Scale_NN_ResizeNNExact_ResizeNNExact_Test8TestBodyEvE25__cv_trace_location_fn263)
  invoke void @_ZN6cvtest9testSetUpEv()
          to label %8 unwind label %10

8:                                                ; preds = %1
  invoke void @_ZN4perf8TestBase15RunPerfTestBodyEv(ptr noundef nonnull align 8 dereferenceable(248) %7)
          to label %9 unwind label %10

9:                                                ; preds = %8
  br label %29

10:                                               ; preds = %8, %1
  %11 = landingpad { ptr, i32 }
          cleanup
          catch ptr @_ZTIN6cvtest7details21SkipTestExceptionBaseE
  %12 = extractvalue { ptr, i32 } %11, 0
  store ptr %12, ptr %4, align 8
  %13 = extractvalue { ptr, i32 } %11, 1
  store i32 %13, ptr %5, align 4
  br label %14

14:                                               ; preds = %10
  %15 = load i32, ptr %5, align 4
  %16 = call i32 @llvm.eh.typeid.for.p0(ptr @_ZTIN6cvtest7details21SkipTestExceptionBaseE) #3
  %17 = icmp eq i32 %15, %16
  br i1 %17, label %18, label %45

18:                                               ; preds = %14
  call void @llvm.lifetime.start.p0(i64 8, ptr %6) #3
  %19 = load ptr, ptr %4, align 8
  %20 = call ptr @__cxa_begin_catch(ptr %19) #3
  store ptr %20, ptr %6, align 8
  %21 = load ptr, ptr %6, align 8, !tbaa !18
  %22 = load ptr, ptr %21, align 8, !tbaa !20
  %23 = getelementptr inbounds ptr, ptr %22, i64 2
  %24 = load ptr, ptr %23, align 8
  %25 = call noundef ptr %24(ptr noundef nonnull align 8 dereferenceable(148) %21) #3
  %26 = invoke i32 (ptr, ...) @printf(ptr noundef @.str.23, ptr noundef %25)
          to label %27 unwind label %31

27:                                               ; preds = %18
  invoke void @__cxa_end_catch()
          to label %28 unwind label %35

28:                                               ; preds = %27
  call void @llvm.lifetime.end.p0(i64 8, ptr %6) #3
  br label %29

29:                                               ; preds = %28, %9
  invoke void @_ZN6cvtest12testTearDownEv()
          to label %30 unwind label %41

30:                                               ; preds = %29
  call void @_ZN2cv5utils5trace7details6RegionD2Ev(ptr noundef nonnull align 8 dereferenceable(12) %3) #3
  call void @llvm.lifetime.end.p0(i64 16, ptr %3) #3
  ret void

31:                                               ; preds = %18
  %32 = landingpad { ptr, i32 }
          cleanup
  %33 = extractvalue { ptr, i32 } %32, 0
  store ptr %33, ptr %4, align 8
  %34 = extractvalue { ptr, i32 } %32, 1
  store i32 %34, ptr %5, align 4
  invoke void @__cxa_end_catch()
          to label %39 unwind label %51

35:                                               ; preds = %27
  %36 = landingpad { ptr, i32 }
          cleanup
  %37 = extractvalue { ptr, i32 } %36, 0
  store ptr %37, ptr %4, align 8
  %38 = extractvalue { ptr, i32 } %36, 1
  store i32 %38, ptr %5, align 4
  br label %40

39:                                               ; preds = %31
  br label %40

40:                                               ; preds = %39, %35
  call void @llvm.lifetime.end.p0(i64 8, ptr %6) #3
  br label %45

41:                                               ; preds = %29
  %42 = landingpad { ptr, i32 }
          cleanup
  %43 = extractvalue { ptr, i32 } %42, 0
  store ptr %43, ptr %4, align 8
  %44 = extractvalue { ptr, i32 } %42, 1
  store i32 %44, ptr %5, align 4
  br label %45

45:                                               ; preds = %41, %40, %14
  call void @_ZN2cv5utils5trace7details6RegionD2Ev(ptr noundef nonnull align 8 dereferenceable(12) %3) #3
  call void @llvm.lifetime.end.p0(i64 16, ptr %3) #3
  br label %46

46:                                               ; preds = %45
  %47 = load ptr, ptr %4, align 8
  %48 = load i32, ptr %5, align 4
  %49 = insertvalue { ptr, i32 } poison, ptr %47, 0
  %50 = insertvalue { ptr, i32 } %49, i32 %48, 1
  resume { ptr, i32 } %50

51:                                               ; preds = %31
  %52 = landingpad { ptr, i32 }
          catch ptr null
  %53 = extractvalue { ptr, i32 } %52, 0
  call void @__clang_call_terminate(ptr %53) #28
  unreachable
}